; Function Attrs: mustprogress nounwind uwtable
define void @_ZN9grpc_core5ArenaD2Ev(ptr nocapture noundef nonnull readonly align 8 dereferenceable(48) %this) unnamed_addr #3 align 2 personality ptr @__gxx_personality_v0 {
entry:
  %last_zone_ = getelementptr inbounds i8, ptr %this, i64 24
  %0 = load atomic i64, ptr %last_zone_ seq_cst, align 8
  %1 = inttoptr i64 %0 to ptr
  br label %while.cond

while.cond:                                       ; preds = %while.body, %entry
  %z.0 = phi ptr [ %1, %entry ], [ %2, %while.body ]
  %tobool.not = icmp eq ptr %z.0, null
  br i1 %tobool.not, label %while.end, label %while.body

while.body:                                       ; preds = %while.cond
  %2 = load ptr, ptr %z.0, align 8
  invoke void @gpr_free_aligned(ptr noundef nonnull %z.0)
          to label %while.cond unwind label %terminate.lpad, !llvm.loop !4

while.end:                                        ; preds = %while.cond
  ret void

terminate.lpad:                                   ; preds = %while.body
  %3 = landingpad { ptr, i32 }
          catch ptr null
  %4 = extractvalue { ptr, i32 } %3, 0
  tail call void @__clang_call_terminate(ptr %4) #10
  unreachable
}